target datalayout = "e-m:e-p270:32:32-p271:32:32-p272:64:64-i64:64-i128:128-f80:128-n8:16:32:64-S128"
target triple = "x86_64-pc-linux-gnu"

%struct.darktable_t = type { %struct.dt_codepath_t, i32, i32, ptr, ptr, ptr, ptr, ptr, ptr, ptr, ptr, ptr, ptr, ptr, ptr, ptr, ptr, ptr, ptr, ptr, ptr, ptr, ptr, ptr, ptr, ptr, ptr, ptr, ptr, ptr, [64 x %struct.dt_pthread_mutex_t], %struct.dt_pthread_mutex_t, %struct.dt_pthread_mutex_t, %struct.dt_pthread_mutex_t, %struct.dt_pthread_mutex_t, %struct.dt_pthread_mutex_t, ptr, ptr, ptr, ptr, ptr, ptr, ptr, ptr, ptr, ptr, ptr, ptr, ptr, %struct.dt_lua_state_t, ptr, double, ptr, i32, [47 x i32], i32, i32, ptr, ptr, %struct.dt_sys_resources_t, %struct.dt_backthumb_t, %struct.dt_gimp_t }
%struct.dt_codepath_t = type { i8, [3 x i8] }
%struct.dt_pthread_mutex_t = type { %union.pthread_mutex_t }
%union.pthread_mutex_t = type { %struct.__pthread_mutex_s }
%struct.__pthread_mutex_s = type { i32, i32, i32, i32, i32, i16, i16, %struct.__pthread_internal_list }
%struct.__pthread_internal_list = type { ptr, ptr }
%struct.dt_lua_state_t = type { i32 }
%struct.dt_sys_resources_t = type { i64, i64, ptr, ptr, i32 }
%struct.dt_backthumb_t = type { double, double, i32, i32, i32, i32 }
%struct.dt_gimp_t = type { i32, ptr, ptr, i32, i32 }
%struct._GdkRGBA = type { double, double, double, double }
%struct.dt_gui_gtk_t = type { ptr, %struct.dt_gui_widgets_t, %struct.dt_gui_scrollbars_t, i32, ptr, i32, [39 x %struct._GdkRGBA], i32, i32, i32, i32, i32, double, double, double, double, ptr, double, double, double, double, i32, i32, [4096 x i8], i32, i32, i32, %struct.dt_pthread_mutex_t }
%struct.dt_gui_widgets_t = type { ptr, ptr, ptr, ptr, i32, i32, i32 }
%struct.dt_gui_scrollbars_t = type { ptr, ptr, i32 }
%struct.dt_ui_t = type { [16 x ptr], [6 x ptr], ptr, ptr, ptr, ptr, ptr, ptr, ptr }

@darktable = external global %struct.darktable_t, align 8
@.str.69 = private unnamed_addr constant [48 x i8] c"[dt_get_system_gui_ppd] can't detect system ppd\00", align 1
@.str.70 = private unnamed_addr constant [41 x i8] c"[dt_get_system_gui_ppd] system ppd is %f\00", align 1

; Function Attrs: nounwind uwtable
define double @dt_get_system_gui_ppd(ptr noundef %0) #0 {
  %2 = alloca double, align 8
  %3 = alloca ptr, align 8
  %4 = alloca double, align 8
  %5 = alloca i32, align 4
  store ptr %0, ptr %3, align 8, !tbaa !6
  call void @llvm.lifetime.start.p0(i64 8, ptr %4) #15
  store double 0.000000e+00, ptr %4, align 8, !tbaa !68
  %6 = load ptr, ptr %3, align 8, !tbaa !6
  %7 = call i32 @gtk_widget_get_scale_factor(ptr noundef %6)
  %8 = sitofp i32 %7 to double
  store double %8, ptr %4, align 8, !tbaa !68
  %9 = load double, ptr %4, align 8, !tbaa !68
  %10 = fcmp reassoc nsz arcp contract afn olt double %9, 1.000000e+00
  br i1 %10, label %14, label %11

11:                                               ; preds = %1
  %12 = load double, ptr %4, align 8, !tbaa !68
  %13 = fcmp reassoc nsz arcp contract afn ogt double %12, 4.000000e+00
  br i1 %13, label %14, label %28

14:                                               ; preds = %11, %1
  br label %15

15:                                               ; preds = %14
  %16 = load i32, ptr getelementptr inbounds nuw (%struct.darktable_t, ptr @darktable, i32 0, i32 2), align 8, !tbaa !113
  %17 = and i32 2, %16
  %18 = icmp ne i32 %17, 0
  br i1 %18, label %19, label %25

19:                                               ; preds = %15
  %20 = load i32, ptr getelementptr inbounds nuw (%struct.darktable_t, ptr @darktable, i32 0, i32 2), align 8, !tbaa !113
  %21 = xor i32 %20, -1
  %22 = and i32 0, %21
  %23 = icmp ne i32 %22, 0
  br i1 %23, label %25, label %24

24:                                               ; preds = %19
  call void (ptr, ...) @dt_print_ext(ptr noundef @.str.69)
  br label %25

25:                                               ; preds = %24, %19, %15
  br label %26

26:                                               ; preds = %25
  br label %27

27:                                               ; preds = %26
  store double 1.000000e+00, ptr %2, align 8
  store i32 1, ptr %5, align 4
  br label %44

28:                                               ; preds = %11
  br label %29

29:                                               ; preds = %28
  %30 = load i32, ptr getelementptr inbounds nuw (%struct.darktable_t, ptr @darktable, i32 0, i32 2), align 8, !tbaa !113
  %31 = and i32 2, %30
  %32 = icmp ne i32 %31, 0
  br i1 %32, label %33, label %40

33:                                               ; preds = %29
  %34 = load i32, ptr getelementptr inbounds nuw (%struct.darktable_t, ptr @darktable, i32 0, i32 2), align 8, !tbaa !113
  %35 = xor i32 %34, -1
  %36 = and i32 0, %35
  %37 = icmp ne i32 %36, 0
  br i1 %37, label %40, label %38

38:                                               ; preds = %33
  %39 = load double, ptr %4, align 8, !tbaa !68
  call void (ptr, ...) @dt_print_ext(ptr noundef @.str.70, double noundef %39)
  br label %40

40:                                               ; preds = %38, %33, %29
  br label %41

41:                                               ; preds = %40
  br label %42

42:                                               ; preds = %41
  %43 = load double, ptr %4, align 8, !tbaa !68
  store double %43, ptr %2, align 8
  store i32 1, ptr %5, align 4
  br label %44

44:                                               ; preds = %42, %27
  call void @llvm.lifetime.end.p0(i64 8, ptr %4) #15
  %45 = load double, ptr %2, align 8
  ret double %45
}

; Function Attrs: nounwind uwtable
define void @dt_configure_ppd_dpi(ptr noundef %0) #0 {
  %2 = alloca ptr, align 8
  %3 = alloca ptr, align 8
  store ptr %0, ptr %2, align 8, !tbaa !116
  call void @llvm.lifetime.start.p0(i64 8, ptr %3) #15
  %4 = load ptr, ptr %2, align 8, !tbaa !116
  %5 = getelementptr inbounds nuw %struct.dt_gui_gtk_t, ptr %4, i32 0, i32 0
  %6 = load ptr, ptr %5, align 8, !tbaa !72
  %7 = getelementptr inbounds nuw %struct.dt_ui_t, ptr %6, i32 0, i32 5
  %8 = load ptr, ptr %7, align 8, !tbaa !77
  store ptr %8, ptr %3, align 8, !tbaa !6
  %9 = load ptr, ptr %3, align 8, !tbaa !6
  %10 = call reassoc nsz arcp contract afn double @dt_get_system_gui_ppd(ptr noundef %9)
  %11 = load ptr, ptr %2, align 8, !tbaa !116
  %12 = getelementptr inbounds nuw %struct.dt_gui_gtk_t, ptr %11, i32 0, i32 20
  store double %10, ptr %12, align 8, !tbaa !219
  %13 = load ptr, ptr %2, align 8, !tbaa !116
  %14 = getelementptr inbounds nuw %struct.dt_gui_gtk_t, ptr %13, i32 0, i32 19
  store double %10, ptr %14, align 8, !tbaa !220
  %15 = load ptr, ptr %2, align 8, !tbaa !116
  %16 = getelementptr inbounds nuw %struct.dt_gui_gtk_t, ptr %15, i32 0, i32 26
  store i32 1, ptr %16, align 8, !tbaa !221
  %17 = load ptr, ptr %3, align 8, !tbaa !6
  %18 = call reassoc nsz arcp contract afn double @dt_get_screen_resolution(ptr noundef %17)
  %19 = load ptr, ptr %2, align 8, !tbaa !116
  %20 = getelementptr inbounds nuw %struct.dt_gui_gtk_t, ptr %19, i32 0, i32 17
  store double %18, ptr %20, align 8, !tbaa !222
  %21 = load ptr, ptr %2, align 8, !tbaa !116
  %22 = getelementptr inbounds nuw %struct.dt_gui_gtk_t, ptr %21, i32 0, i32 17
  %23 = load double, ptr %22, align 8, !tbaa !222
  %24 = fdiv reassoc nsz arcp contract afn double %23, 9.600000e+01
  %25 = load ptr, ptr %2, align 8, !tbaa !116
  %26 = getelementptr inbounds nuw %struct.dt_gui_gtk_t, ptr %25, i32 0, i32 18
  store double %24, ptr %26, align 8, !tbaa !144
  call void @llvm.lifetime.end.p0(i64 8, ptr %3) #15
  ret void
}