; Function Attrs: nounwind uwtable
define void @dt_configure_ppd_dpi(ptr noundef captures(none) initializes((1416, 1448), (5560, 5564)) %0) local_unnamed_addr #0 {
  %2 = load ptr, ptr %0, align 8, !tbaa !63
  %3 = getelementptr inbounds nuw i8, ptr %2, i64 200
  %4 = load ptr, ptr %3, align 8, !tbaa !64
  %5 = tail call i32 @gtk_widget_get_scale_factor(ptr noundef %4) #18
  %6 = sitofp i32 %5 to double
  %7 = add i32 %5, -5
  %or.cond.i = icmp ult i32 %7, -4
  %8 = load i32, ptr getelementptr inbounds nuw (i8, ptr @darktable, i64 8), align 8, !tbaa !101
  %9 = and i32 %8, 2
  %.not8.i = icmp eq i32 %9, 0
  br i1 %or.cond.i, label %10, label %12

10:                                               ; preds = %1
  br i1 %.not8.i, label %dt_get_system_gui_ppd.exit, label %11

11:                                               ; preds = %10
  tail call void (ptr, ...) @dt_print_ext(ptr noundef nonnull @.str.69) #18
  br label %dt_get_system_gui_ppd.exit

12:                                               ; preds = %1
  br i1 %.not8.i, label %dt_get_system_gui_ppd.exit, label %13

13:                                               ; preds = %12
  tail call void (ptr, ...) @dt_print_ext(ptr noundef nonnull @.str.70, double noundef %6) #18
  br label %dt_get_system_gui_ppd.exit

dt_get_system_gui_ppd.exit:                       ; preds = %10, %11, %12, %13
  %.0.i = phi nsz double [ 1.000000e+00, %11 ], [ 1.000000e+00, %10 ], [ %6, %13 ], [ %6, %12 ]
  %14 = getelementptr inbounds nuw i8, ptr %0, i64 1440
  store double %.0.i, ptr %14, align 8, !tbaa !102
  %15 = getelementptr inbounds nuw i8, ptr %0, i64 1432
  store double %.0.i, ptr %15, align 8, !tbaa !75
  %16 = getelementptr inbounds nuw i8, ptr %0, i64 5560
  store i32 1, ptr %16, align 8, !tbaa !103
  %17 = tail call reassoc nsz arcp contract afn double @dt_get_screen_resolution(ptr noundef %4)
  %18 = getelementptr inbounds nuw i8, ptr %0, i64 1416
  store double %17, ptr %18, align 8, !tbaa !104
  %19 = fmul reassoc nsz arcp contract afn double %17, 0x3F85555555555555
  %20 = getelementptr inbounds nuw i8, ptr %0, i64 1424
  store double %19, ptr %20, align 8, !tbaa !105
  ret void
}